target datalayout = "e-m:e-p270:32:32-p271:32:32-p272:64:64-i64:64-i128:128-f80:128-n8:16:32:64-S128"
target triple = "x86_64-pc-linux-gnu"

@hf_ieee80211_he_ess_report_info_field = internal global i32 0, align 4
@hf_ieee80211_he_ess_report_recommend_transition_thresh = internal global i32 0, align 4
@ett_he_ess_report_info_field = internal global i32 0, align 4
@ess_info_field_headers = internal constant [3 x ptr] [ptr @hf_ieee80211_he_ess_report_planned_ess, ptr @hf_ieee80211_he_ess_report_edge_of_ess, ptr null], align 16
@.str.10278 = private unnamed_addr constant [61 x i8] c"Recommended BSS Transition Threshold: %d (No recommendation)\00", align 1
@.str.10279 = private unnamed_addr constant [49 x i8] c"Recommended BSS Transition Threshold: %d (%ddBm)\00", align 1

; Function Attrs: null_pointer_is_valid sspstrong uwtable
define internal void @dissect_ess_report(ptr noundef %0, ptr noundef %1, ptr noundef %2, i32 noundef %3, i32 noundef %4) #1 {
  %6 = alloca ptr, align 8
  %7 = alloca ptr, align 8
  %8 = alloca ptr, align 8
  %9 = alloca i32, align 4
  %10 = alloca i32, align 4
  %11 = alloca i8, align 1
  store ptr %0, ptr %6, align 8
  store ptr %1, ptr %7, align 8
  store ptr %2, ptr %8, align 8
  store i32 %3, ptr %9, align 4
  store i32 %4, ptr %10, align 4
  call void @llvm.lifetime.start.p0(i64 1, ptr %11) #19
  %12 = load ptr, ptr %6, align 8
  %13 = load i32, ptr %9, align 4
  %14 = call zeroext i8 @tvb_get_uint8(ptr noundef %12, i32 noundef %13)
  %15 = zext i8 %14 to i32
  %16 = ashr i32 %15, 2
  %17 = trunc i32 %16 to i8
  store i8 %17, ptr %11, align 1
  %18 = load ptr, ptr %8, align 8
  %19 = load ptr, ptr %6, align 8
  %20 = load i32, ptr %9, align 4
  %21 = load i32, ptr @hf_ieee80211_he_ess_report_info_field, align 4
  %22 = load i32, ptr @ett_he_ess_report_info_field, align 4
  %23 = call ptr @proto_tree_add_bitmask_with_flags(ptr noundef %18, ptr noundef %19, i32 noundef %20, i32 noundef %21, i32 noundef %22, ptr noundef @ess_info_field_headers, i32 noundef -2147483648, i32 noundef 1)
  %24 = load i8, ptr %11, align 1
  %25 = zext i8 %24 to i32
  %26 = icmp eq i32 %25, 63
  br i1 %26, label %27, label %37

27:                                               ; preds = %5
  %28 = load ptr, ptr %8, align 8
  %29 = load i32, ptr @hf_ieee80211_he_ess_report_recommend_transition_thresh, align 4
  %30 = load ptr, ptr %6, align 8
  %31 = load i32, ptr %9, align 4
  %32 = load i8, ptr %11, align 1
  %33 = zext i8 %32 to i32
  %34 = load i8, ptr %11, align 1
  %35 = zext i8 %34 to i32
  %36 = call ptr (ptr, i32, ptr, i32, i32, i32, ptr, ...) @proto_tree_add_int_format(ptr noundef %28, i32 noundef %29, ptr noundef %30, i32 noundef %31, i32 noundef 1, i32 noundef %33, ptr noundef @.str.10278, i32 noundef %35)
  br label %50

37:                                               ; preds = %5
  %38 = load ptr, ptr %8, align 8
  %39 = load i32, ptr @hf_ieee80211_he_ess_report_recommend_transition_thresh, align 4
  %40 = load ptr, ptr %6, align 8
  %41 = load i32, ptr %9, align 4
  %42 = load i8, ptr %11, align 1
  %43 = zext i8 %42 to i32
  %44 = load i8, ptr %11, align 1
  %45 = zext i8 %44 to i32
  %46 = load i8, ptr %11, align 1
  %47 = zext i8 %46 to i32
  %48 = add i32 -100, %47
  %49 = call ptr (ptr, i32, ptr, i32, i32, i32, ptr, ...) @proto_tree_add_int_format(ptr noundef %38, i32 noundef %39, ptr noundef %40, i32 noundef %41, i32 noundef 1, i32 noundef %43, ptr noundef @.str.10279, i32 noundef %45, i32 noundef %48)
  br label %50

50:                                               ; preds = %37, %27
  call void @llvm.lifetime.end.p0(i64 1, ptr %11) #19
  ret void
}