; Function Attrs: null_pointer_is_valid sspstrong uwtable
define internal fastcc void @dissect_ess_report(ptr noundef %0, ptr noundef %1) unnamed_addr #2 {
  %3 = tail call zeroext i8 @tvb_get_uint8(ptr noundef %0, i32 noundef 1)
  %4 = lshr i8 %3, 2
  %5 = load i32, ptr @hf_ieee80211_he_ess_report_info_field, align 4
  %6 = load i32, ptr @ett_he_ess_report_info_field, align 4
  %7 = tail call ptr @proto_tree_add_bitmask_with_flags(ptr noundef %1, ptr noundef %0, i32 noundef 1, i32 noundef %5, i32 noundef %6, ptr noundef nonnull @ess_info_field_headers, i32 noundef -2147483648, i32 noundef 1)
  %8 = icmp eq i8 %4, 63
  br i1 %8, label %9, label %12

9:                                                ; preds = %2
  %10 = load i32, ptr @hf_ieee80211_he_ess_report_recommend_transition_thresh, align 4
  %11 = tail call ptr (ptr, i32, ptr, i32, i32, i32, ptr, ...) @proto_tree_add_int_format(ptr noundef %1, i32 noundef %10, ptr noundef %0, i32 noundef 1, i32 noundef 1, i32 noundef 63, ptr noundef nonnull @.str.10278, i32 noundef 63)
  br label %17

12:                                               ; preds = %2
  %13 = zext nneg i8 %4 to i32
  %14 = load i32, ptr @hf_ieee80211_he_ess_report_recommend_transition_thresh, align 4
  %15 = add nuw nsw i32 %13, -100
  %16 = tail call ptr (ptr, i32, ptr, i32, i32, i32, ptr, ...) @proto_tree_add_int_format(ptr noundef %1, i32 noundef %14, ptr noundef %0, i32 noundef 1, i32 noundef 1, i32 noundef %13, ptr noundef nonnull @.str.10279, i32 noundef %13, i32 noundef %15)
  br label %17

17:                                               ; preds = %12, %9
  ret void
}